; Function Attrs: nounwind uwtable
define internal noalias ptr @hmac_drbg_kdf_new(ptr noundef %0) #0 {
  %2 = tail call i32 @ossl_prov_is_running() #5
  %.not = icmp eq i32 %2, 0
  br i1 %.not, label %9, label %3

3:                                                ; preds = %1
  %4 = tail call noalias ptr @CRYPTO_zalloc(i64 noundef 216, ptr noundef nonnull @.str, i32 noundef 47) #5
  %5 = icmp eq ptr %4, null
  br i1 %5, label %6, label %7

6:                                                ; preds = %3
  tail call void @ERR_new() #5
  tail call void @ERR_set_debug(ptr noundef nonnull @.str, i32 noundef 49, ptr noundef nonnull @__func__.hmac_drbg_kdf_new) #5
  tail call void (i32, i32, ptr, ...) @ERR_set_error(i32 noundef 57, i32 noundef 786688, ptr noundef null) #5
  br label %9

7:                                                ; preds = %3
  %8 = getelementptr inbounds nuw i8, ptr %4, i64 168
  store ptr %0, ptr %8, align 8, !tbaa !3
  br label %9

9:                                                ; preds = %1, %7, %6
  %.0 = phi ptr [ null, %6 ], [ %4, %7 ], [ null, %1 ]
  ret ptr %.0
}